target datalayout = "e-m:e-p270:32:32-p271:32:32-p272:64:64-i64:64-i128:128-f80:128-n8:16:32:64-S128"
target triple = "x86_64-pc-linux-gnu"

@_ZL14invariantChars = internal constant [4 x i32] [i32 -1025, i32 -27, i32 -2013265922, i32 -2013265922], align 16

; Function Attrs: mustprogress nounwind uwtable
define i32 @uprv_compareInvEbcdicAsAscii_77(ptr noundef %0, ptr noundef %1) #0 {
  %3 = alloca i32, align 4
  %4 = alloca ptr, align 8
  %5 = alloca ptr, align 8
  %6 = alloca i32, align 4
  %7 = alloca i32, align 4
  %8 = alloca i32, align 4
  store ptr %0, ptr %4, align 8, !tbaa !3
  store ptr %1, ptr %5, align 8, !tbaa !3
  call void @llvm.lifetime.start.p0(i64 4, ptr %6) #7
  call void @llvm.lifetime.start.p0(i64 4, ptr %7) #7
  br label %9

9:                                                ; preds = %87, %2
  %10 = load ptr, ptr %4, align 8, !tbaa !3
  %11 = load i8, ptr %10, align 1, !tbaa !12
  %12 = zext i8 %11 to i32
  store i32 %12, ptr %6, align 4, !tbaa !10
  %13 = load ptr, ptr %5, align 8, !tbaa !3
  %14 = load i8, ptr %13, align 1, !tbaa !12
  %15 = zext i8 %14 to i32
  store i32 %15, ptr %7, align 4, !tbaa !10
  %16 = load i32, ptr %6, align 4, !tbaa !10
  %17 = load i32, ptr %7, align 4, !tbaa !10
  %18 = icmp ne i32 %16, %17
  br i1 %18, label %19, label %81

19:                                               ; preds = %9
  %20 = load i32, ptr %6, align 4, !tbaa !10
  %21 = icmp ne i32 %20, 0
  br i1 %21, label %22, label %48

22:                                               ; preds = %19
  %23 = load i32, ptr %6, align 4, !tbaa !10
  %24 = sext i32 %23 to i64
  %25 = getelementptr inbounds [256 x i8], ptr @_ZL15asciiFromEbcdic, i64 0, i64 %24
  %26 = load i8, ptr %25, align 1, !tbaa !12
  %27 = zext i8 %26 to i32
  store i32 %27, ptr %6, align 4, !tbaa !10
  %28 = icmp eq i32 %27, 0
  br i1 %28, label %43, label %29

29:                                               ; preds = %22
  %30 = load i32, ptr %6, align 4, !tbaa !10
  %31 = icmp sle i32 %30, 127
  br i1 %31, label %32, label %43

32:                                               ; preds = %29
  %33 = load i32, ptr %6, align 4, !tbaa !10
  %34 = ashr i32 %33, 5
  %35 = sext i32 %34 to i64
  %36 = getelementptr inbounds [4 x i32], ptr @_ZL14invariantChars, i64 0, i64 %35
  %37 = load i32, ptr %36, align 4, !tbaa !10
  %38 = load i32, ptr %6, align 4, !tbaa !10
  %39 = and i32 %38, 31
  %40 = shl i32 1, %39
  %41 = and i32 %37, %40
  %42 = icmp ne i32 %41, 0
  br i1 %42, label %48, label %43

43:                                               ; preds = %32, %29, %22
  %44 = load ptr, ptr %4, align 8, !tbaa !3
  %45 = load i8, ptr %44, align 1, !tbaa !12
  %46 = zext i8 %45 to i32
  %47 = sub nsw i32 0, %46
  store i32 %47, ptr %6, align 4, !tbaa !10
  br label %48

48:                                               ; preds = %43, %32, %19
  %49 = load i32, ptr %7, align 4, !tbaa !10
  %50 = icmp ne i32 %49, 0
  br i1 %50, label %51, label %77

51:                                               ; preds = %48
  %52 = load i32, ptr %7, align 4, !tbaa !10
  %53 = sext i32 %52 to i64
  %54 = getelementptr inbounds [256 x i8], ptr @_ZL15asciiFromEbcdic, i64 0, i64 %53
  %55 = load i8, ptr %54, align 1, !tbaa !12
  %56 = zext i8 %55 to i32
  store i32 %56, ptr %7, align 4, !tbaa !10
  %57 = icmp eq i32 %56, 0
  br i1 %57, label %72, label %58

58:                                               ; preds = %51
  %59 = load i32, ptr %7, align 4, !tbaa !10
  %60 = icmp sle i32 %59, 127
  br i1 %60, label %61, label %72

61:                                               ; preds = %58
  %62 = load i32, ptr %7, align 4, !tbaa !10
  %63 = ashr i32 %62, 5
  %64 = sext i32 %63 to i64
  %65 = getelementptr inbounds [4 x i32], ptr @_ZL14invariantChars, i64 0, i64 %64
  %66 = load i32, ptr %65, align 4, !tbaa !10
  %67 = load i32, ptr %7, align 4, !tbaa !10
  %68 = and i32 %67, 31
  %69 = shl i32 1, %68
  %70 = and i32 %66, %69
  %71 = icmp ne i32 %70, 0
  br i1 %71, label %77, label %72

72:                                               ; preds = %61, %58, %51
  %73 = load ptr, ptr %5, align 8, !tbaa !3
  %74 = load i8, ptr %73, align 1, !tbaa !12
  %75 = zext i8 %74 to i32
  %76 = sub nsw i32 0, %75
  store i32 %76, ptr %7, align 4, !tbaa !10
  br label %77

77:                                               ; preds = %72, %61, %48
  %78 = load i32, ptr %6, align 4, !tbaa !10
  %79 = load i32, ptr %7, align 4, !tbaa !10
  %80 = sub nsw i32 %78, %79
  store i32 %80, ptr %3, align 4
  store i32 1, ptr %8, align 4
  br label %92

81:                                               ; preds = %9
  %82 = load i32, ptr %6, align 4, !tbaa !10
  %83 = icmp eq i32 %82, 0
  br i1 %83, label %84, label %85

84:                                               ; preds = %81
  store i32 0, ptr %3, align 4
  store i32 1, ptr %8, align 4
  br label %92

85:                                               ; preds = %81
  br label %86

86:                                               ; preds = %85
  br label %87

87:                                               ; preds = %86
  %88 = load ptr, ptr %4, align 8, !tbaa !3
  %89 = getelementptr inbounds nuw i8, ptr %88, i32 1
  store ptr %89, ptr %4, align 8, !tbaa !3
  %90 = load ptr, ptr %5, align 8, !tbaa !3
  %91 = getelementptr inbounds nuw i8, ptr %90, i32 1
  store ptr %91, ptr %5, align 8, !tbaa !3
  br label %9, !llvm.loop !31

92:                                               ; preds = %84, %77
  call void @llvm.lifetime.end.p0(i64 4, ptr %7) #7
  call void @llvm.lifetime.end.p0(i64 4, ptr %6) #7
  %93 = load i32, ptr %3, align 4
  ret i32 %93
}