; Function Attrs: mustprogress nofree norecurse nosync nounwind willreturn memory(argmem: read) uwtable
define range(i32 -382, 383) i32 @uprv_compareInvEbcdicAsAscii_77(ptr noundef readonly captures(none) %0, ptr noundef readonly captures(none) %1) local_unnamed_addr #1 {
  %3 = load i8, ptr %0, align 1, !tbaa !3
  %4 = load i8, ptr %1, align 1, !tbaa !3
  %.not41 = icmp eq i8 %3, %4
  br i1 %.not41, label %.lr.ph, label %._crit_edge

._crit_edge:                                      ; preds = %42, %2
  %.lcssa39 = phi i8 [ %3, %2 ], [ %45, %42 ]
  %.lcssa = phi i8 [ %4, %2 ], [ %46, %42 ]
  %.not32 = icmp eq i8 %.lcssa39, 0
  br i1 %.not32, label %21, label %5

5:                                                ; preds = %._crit_edge
  %6 = zext i8 %.lcssa39 to i64
  %7 = getelementptr inbounds nuw [256 x i8], ptr @_ZL15asciiFromEbcdic, i64 0, i64 %6
  %8 = load i8, ptr %7, align 1, !tbaa !3
  %.not33 = icmp eq i8 %8, 0
  br i1 %.not33, label %18, label %9

9:                                                ; preds = %5
  %10 = zext i8 %8 to i32
  %11 = lshr i32 %10, 5
  %12 = zext nneg i32 %11 to i64
  %13 = getelementptr inbounds nuw [4 x i32], ptr @_ZL14invariantChars, i64 0, i64 %12
  %14 = load i32, ptr %13, align 4, !tbaa !10
  %15 = and i32 %10, 31
  %16 = shl nuw i32 1, %15
  %17 = and i32 %14, %16
  %.not34 = icmp eq i32 %17, 0
  br i1 %.not34, label %18, label %21

18:                                               ; preds = %9, %5
  %19 = zext i8 %.lcssa39 to i32
  %20 = sub nsw i32 0, %19
  br label %21

21:                                               ; preds = %18, %9, %._crit_edge
  %.024 = phi i32 [ %10, %9 ], [ %20, %18 ], [ 0, %._crit_edge ]
  %.not35 = icmp eq i8 %.lcssa, 0
  br i1 %.not35, label %38, label %22

22:                                               ; preds = %21
  %23 = zext i8 %.lcssa to i64
  %24 = getelementptr inbounds nuw [256 x i8], ptr @_ZL15asciiFromEbcdic, i64 0, i64 %23
  %25 = load i8, ptr %24, align 1, !tbaa !3
  %.not36 = icmp eq i8 %25, 0
  br i1 %.not36, label %35, label %26

26:                                               ; preds = %22
  %27 = zext i8 %25 to i32
  %28 = lshr i32 %27, 5
  %29 = zext nneg i32 %28 to i64
  %30 = getelementptr inbounds nuw [4 x i32], ptr @_ZL14invariantChars, i64 0, i64 %29
  %31 = load i32, ptr %30, align 4, !tbaa !10
  %32 = and i32 %27, 31
  %33 = shl nuw i32 1, %32
  %34 = and i32 %31, %33
  %.not37 = icmp eq i32 %34, 0
  br i1 %.not37, label %35, label %38

35:                                               ; preds = %26, %22
  %36 = zext i8 %.lcssa to i32
  %37 = sub nsw i32 0, %36
  br label %38

38:                                               ; preds = %35, %26, %21
  %.0 = phi i32 [ %27, %26 ], [ %37, %35 ], [ 0, %21 ]
  %39 = sub nsw i32 %.024, %.0
  br label %.loopexit

.lr.ph:                                           ; preds = %2, %42
  %40 = phi i8 [ %45, %42 ], [ %3, %2 ]
  %.02543 = phi ptr [ %44, %42 ], [ %1, %2 ]
  %.02642 = phi ptr [ %43, %42 ], [ %0, %2 ]
  %41 = icmp eq i8 %40, 0
  br i1 %41, label %.loopexit, label %42

42:                                               ; preds = %.lr.ph
  %43 = getelementptr inbounds nuw i8, ptr %.02642, i64 1
  %44 = getelementptr inbounds nuw i8, ptr %.02543, i64 1
  %45 = load i8, ptr %43, align 1, !tbaa !3
  %46 = load i8, ptr %44, align 1, !tbaa !3
  %.not = icmp eq i8 %45, %46
  br i1 %.not, label %.lr.ph, label %._crit_edge, !llvm.loop !23

.loopexit:                                        ; preds = %.lr.ph, %38
  %.027 = phi i32 [ %39, %38 ], [ 0, %.lr.ph ]
  ret i32 %.027
}